; ModuleID = '21/1589.c'
source_filename = "21/1589.c"
target datalayout = "e-m:e-p270:32:32-p271:32:32-p272:64:64-i64:64-f80:128-n8:16:32:64-S128"
target triple = "x86_64-pc-linux-gnu"

@.str = private unnamed_addr constant [3 x i8] c"%d\00", align 1
@.str.1 = private unnamed_addr constant [6 x i8] c"%d,%d\00", align 1
@.str.2 = private unnamed_addr constant [5 x i8] c"ghjk\00", align 1

; Function Attrs: noinline nounwind uwtable
define dso_local i32 @main() #0 {
  %1 = alloca i32, align 4
  %2 = alloca [300 x i32], align 16
  %3 = alloca i32, align 4
  %4 = alloca i32, align 4
  %5 = alloca i32, align 4
  %6 = alloca i32, align 4
  %7 = alloca double, align 8
  %8 = alloca double, align 8
  %9 = alloca i32, align 4
  store i32 0, i32* %1, align 4
  store i32 0, i32* %4, align 4
  store double 0.000000e+00, double* %8, align 8
  %10 = call i32 (i8*, ...) @__isoc99_scanf(i8* getelementptr inbounds ([3 x i8], [3 x i8]* @.str, i64 0, i64 0), i32* %3)
  store i32 0, i32* %5, align 4
  br label %11

11:                                               ; preds = %26, %0
  %12 = load i32, i32* %5, align 4
  %13 = load i32, i32* %3, align 4
  %14 = icmp slt i32 %12, %13
  br i1 %14, label %15, label %29

15:                                               ; preds = %11
  %16 = load i32, i32* %5, align 4
  %17 = sext i32 %16 to i64
  %18 = getelementptr inbounds [300 x i32], [300 x i32]* %2, i64 0, i64 %17
  %19 = call i32 (i8*, ...) @__isoc99_scanf(i8* getelementptr inbounds ([3 x i8], [3 x i8]* @.str, i64 0, i64 0), i32* %18)
  %20 = load i32, i32* %5, align 4
  %21 = sext i32 %20 to i64
  %22 = getelementptr inbounds [300 x i32], [300 x i32]* %2, i64 0, i64 %21
  %23 = load i32, i32* %22, align 4
  %24 = load i32, i32* %4, align 4
  %25 = add nsw i32 %24, %23
  store i32 %25, i32* %4, align 4
  br label %26

26:                                               ; preds = %15
  %27 = load i32, i32* %5, align 4
  %28 = add nsw i32 %27, 1
  store i32 %28, i32* %5, align 4
  br label %11

29:                                               ; preds = %11
  %30 = load i32, i32* %4, align 4
  %31 = sitofp i32 %30 to double
  %32 = load i32, i32* %3, align 4
  %33 = sitofp i32 %32 to double
  %34 = fdiv double %31, %33
  store double %34, double* %7, align 8
  store i32 0, i32* %5, align 4
  br label %35

35:                                               ; preds = %80, %29
  %36 = load i32, i32* %5, align 4
  %37 = load i32, i32* %3, align 4
  %38 = icmp slt i32 %36, %37
  br i1 %38, label %39, label %83

39:                                               ; preds = %35
  %40 = load i32, i32* %3, align 4
  %41 = sub nsw i32 %40, 1
  store i32 %41, i32* %6, align 4
  br label %42

42:                                               ; preds = %76, %39
  %43 = load i32, i32* %6, align 4
  %44 = load i32, i32* %5, align 4
  %45 = icmp sgt i32 %43, %44
  br i1 %45, label %46, label %79

46:                                               ; preds = %42
  %47 = load i32, i32* %6, align 4
  %48 = sext i32 %47 to i64
  %49 = getelementptr inbounds [300 x i32], [300 x i32]* %2, i64 0, i64 %48
  %50 = load i32, i32* %49, align 4
  %51 = load i32, i32* %6, align 4
  %52 = sub nsw i32 %51, 1
  %53 = sext i32 %52 to i64
  %54 = getelementptr inbounds [300 x i32], [300 x i32]* %2, i64 0, i64 %53
  %55 = load i32, i32* %54, align 4
  %56 = icmp slt i32 %50, %55
  br i1 %56, label %57, label %75

57:                                               ; preds = %46
  %58 = load i32, i32* %6, align 4
  %59 = sext i32 %58 to i64
  %60 = getelementptr inbounds [300 x i32], [300 x i32]* %2, i64 0, i64 %59
  %61 = load i32, i32* %60, align 4
  store i32 %61, i32* %9, align 4
  %62 = load i32, i32* %6, align 4
  %63 = sub nsw i32 %62, 1
  %64 = sext i32 %63 to i64
  %65 = getelementptr inbounds [300 x i32], [300 x i32]* %2, i64 0, i64 %64
  %66 = load i32, i32* %65, align 4
  %67 = load i32, i32* %6, align 4
  %68 = sext i32 %67 to i64
  %69 = getelementptr inbounds [300 x i32], [300 x i32]* %2, i64 0, i64 %68
  store i32 %66, i32* %69, align 4
  %70 = load i32, i32* %9, align 4
  %71 = load i32, i32* %6, align 4
  %72 = sub nsw i32 %71, 1
  %73 = sext i32 %72 to i64
  %74 = getelementptr inbounds [300 x i32], [300 x i32]* %2, i64 0, i64 %73
  store i32 %70, i32* %74, align 4
  br label %75

75:                                               ; preds = %57, %46
  br label %76

76:                                               ; preds = %75
  %77 = load i32, i32* %6, align 4
  %78 = add nsw i32 %77, -1
  store i32 %78, i32* %6, align 4
  br label %42

79:                                               ; preds = %42
  br label %80

80:                                               ; preds = %79
  %81 = load i32, i32* %5, align 4
  %82 = add nsw i32 %81, 1
  store i32 %82, i32* %5, align 4
  br label %35

83:                                               ; preds = %35
  %84 = load i32, i32* %3, align 4
  %85 = sub nsw i32 %84, 1
  %86 = sext i32 %85 to i64
  %87 = getelementptr inbounds [300 x i32], [300 x i32]* %2, i64 0, i64 %86
  %88 = load i32, i32* %87, align 4
  %89 = sitofp i32 %88 to double
  %90 = load double, double* %7, align 8
  %91 = fsub double %89, %90
  %92 = load double, double* %7, align 8
  %93 = getelementptr inbounds [300 x i32], [300 x i32]* %2, i64 0, i64 0
  %94 = load i32, i32* %93, align 16
  %95 = sitofp i32 %94 to double
  %96 = fsub double %92, %95
  %97 = fcmp oeq double %91, %96
  br i1 %97, label %98, label %107

98:                                               ; preds = %83
  %99 = getelementptr inbounds [300 x i32], [300 x i32]* %2, i64 0, i64 0
  %100 = load i32, i32* %99, align 16
  %101 = load i32, i32* %3, align 4
  %102 = sub nsw i32 %101, 1
  %103 = sext i32 %102 to i64
  %104 = getelementptr inbounds [300 x i32], [300 x i32]* %2, i64 0, i64 %103
  %105 = load i32, i32* %104, align 4
  %106 = call i32 (i8*, ...) @printf(i8* getelementptr inbounds ([6 x i8], [6 x i8]* @.str.1, i64 0, i64 0), i32 %100, i32 %105)
  br label %152

107:                                              ; preds = %83
  %108 = load i32, i32* %3, align 4
  %109 = sub nsw i32 %108, 1
  %110 = sext i32 %109 to i64
  %111 = getelementptr inbounds [300 x i32], [300 x i32]* %2, i64 0, i64 %110
  %112 = load i32, i32* %111, align 4
  %113 = sitofp i32 %112 to double
  %114 = load double, double* %7, align 8
  %115 = fsub double %113, %114
  %116 = load double, double* %7, align 8
  %117 = getelementptr inbounds [300 x i32], [300 x i32]* %2, i64 0, i64 0
  %118 = load i32, i32* %117, align 16
  %119 = sitofp i32 %118 to double
  %120 = fsub double %116, %119
  %121 = fcmp olt double %115, %120
  br i1 %121, label %122, label %126

122:                                              ; preds = %107
  %123 = getelementptr inbounds [300 x i32], [300 x i32]* %2, i64 0, i64 0
  %124 = load i32, i32* %123, align 16
  %125 = call i32 (i8*, ...) @printf(i8* getelementptr inbounds ([3 x i8], [3 x i8]* @.str, i64 0, i64 0), i32 %124)
  br label %151

126:                                              ; preds = %107
  %127 = load i32, i32* %3, align 4
  %128 = sub nsw i32 %127, 1
  %129 = sext i32 %128 to i64
  %130 = getelementptr inbounds [300 x i32], [300 x i32]* %2, i64 0, i64 %129
  %131 = load i32, i32* %130, align 4
  %132 = sitofp i32 %131 to double
  %133 = load double, double* %7, align 8
  %134 = fsub double %132, %133
  %135 = load double, double* %7, align 8
  %136 = getelementptr inbounds [300 x i32], [300 x i32]* %2, i64 0, i64 0
  %137 = load i32, i32* %136, align 16
  %138 = sitofp i32 %137 to double
  %139 = fsub double %135, %138
  %140 = fcmp ogt double %134, %139
  br i1 %140, label %141, label %148

141:                                              ; preds = %126
  %142 = load i32, i32* %3, align 4
  %143 = sub nsw i32 %142, 1
  %144 = sext i32 %143 to i64
  %145 = getelementptr inbounds [300 x i32], [300 x i32]* %2, i64 0, i64 %144
  %146 = load i32, i32* %145, align 4
  %147 = call i32 (i8*, ...) @printf(i8* getelementptr inbounds ([3 x i8], [3 x i8]* @.str, i64 0, i64 0), i32 %146)
  br label %150

148:                                              ; preds = %126
  %149 = call i32 (i8*, ...) @printf(i8* getelementptr inbounds ([5 x i8], [5 x i8]* @.str.2, i64 0, i64 0))
  br label %150

150:                                              ; preds = %148, %141
  br label %151

151:                                              ; preds = %150, %122
  br label %152

152:                                              ; preds = %151, %98
  ret i32 0
}

declare dso_local i32 @__isoc99_scanf(i8*, ...) #1

declare dso_local i32 @printf(i8*, ...) #1


!llvm.module.flags = !{!0}
!llvm.ident = !{!1}

!0 = !{i32 1, !"wchar_size", i32 4}
!1 = !{!"clang version 10.0.0-4ubuntu1 "}
